; Function Attrs: nounwind uwtable
define internal fastcc void @Prs_NtkAddBox(ptr noundef captures(none) %0, i32 noundef %1, i32 noundef %2, ptr noundef nonnull readonly captures(none) %3) unnamed_addr #0 {
  %5 = getelementptr inbounds nuw i8, ptr %0, i64 208
  %6 = getelementptr i8, ptr %0, i64 212
  %.val13 = load i32, ptr %6, align 4
  %7 = and i32 %.val13, 1
  %.not = icmp eq i32 %7, 0
  br i1 %.not, label %8, label %38

8:                                                ; preds = %4
  %9 = load i32, ptr %5, align 8
  %10 = icmp eq i32 %.val13, %9
  br i1 %10, label %11, label %.Vec_IntGrow.exit10_crit_edge.i

.Vec_IntGrow.exit10_crit_edge.i:                  ; preds = %8
  %.phi.trans.insert.i = getelementptr inbounds nuw i8, ptr %0, i64 216
  %.pre.i = load ptr, ptr %.phi.trans.insert.i, align 8
  br label %Vec_IntPush.exit

11:                                               ; preds = %8
  %12 = icmp slt i32 %.val13, 16
  br i1 %12, label %13, label %21

13:                                               ; preds = %11
  %14 = getelementptr inbounds nuw i8, ptr %0, i64 216
  %15 = load ptr, ptr %14, align 8
  %.not9.i.i = icmp eq ptr %15, null
  br i1 %.not9.i.i, label %18, label %16

16:                                               ; preds = %13
  %17 = tail call dereferenceable_or_null(64) ptr @realloc(ptr noundef nonnull %15, i64 noundef 64) #29
  br label %Vec_IntGrow.exit.i

18:                                               ; preds = %13
  %19 = tail call noalias dereferenceable_or_null(64) ptr @malloc(i64 noundef 64) #30
  br label %Vec_IntGrow.exit.i

Vec_IntGrow.exit.i:                               ; preds = %18, %16
  %20 = phi ptr [ %17, %16 ], [ %19, %18 ]
  store ptr %20, ptr %14, align 8
  store i32 16, ptr %5, align 8
  br label %Vec_IntPush.exit

21:                                               ; preds = %11
  %22 = shl nuw nsw i32 %.val13, 1
  %23 = getelementptr inbounds nuw i8, ptr %0, i64 216
  %24 = load ptr, ptr %23, align 8
  %.not9.i9.i = icmp eq ptr %24, null
  %25 = zext nneg i32 %22 to i64
  %26 = shl nuw nsw i64 %25, 2
  br i1 %.not9.i9.i, label %29, label %27

27:                                               ; preds = %21
  %28 = tail call ptr @realloc(ptr noundef nonnull %24, i64 noundef %26) #29
  br label %31

29:                                               ; preds = %21
  %30 = tail call noalias ptr @malloc(i64 noundef %26) #30
  br label %31

31:                                               ; preds = %29, %27
  %32 = phi ptr [ %28, %27 ], [ %30, %29 ]
  store ptr %32, ptr %23, align 8
  store i32 %22, ptr %5, align 8
  br label %Vec_IntPush.exit

Vec_IntPush.exit:                                 ; preds = %.Vec_IntGrow.exit10_crit_edge.i, %Vec_IntGrow.exit.i, %31
  %33 = phi ptr [ %.pre.i, %.Vec_IntGrow.exit10_crit_edge.i ], [ %32, %31 ], [ %20, %Vec_IntGrow.exit.i ]
  %34 = load i32, ptr %6, align 4
  %35 = add nsw i32 %34, 1
  store i32 %35, ptr %6, align 4
  %36 = sext i32 %34 to i64
  %37 = getelementptr inbounds i32, ptr %33, i64 %36
  store i32 -1, ptr %37, align 4
  %.val12.pre = load i32, ptr %6, align 4
  br label %38

38:                                               ; preds = %Vec_IntPush.exit, %4
  %.val12 = phi i32 [ %.val12.pre, %Vec_IntPush.exit ], [ %.val13, %4 ]
  %39 = getelementptr inbounds nuw i8, ptr %0, i64 224
  %40 = getelementptr inbounds nuw i8, ptr %0, i64 228
  %41 = load i32, ptr %40, align 4
  %42 = load i32, ptr %39, align 8
  %43 = icmp eq i32 %41, %42
  br i1 %43, label %44, label %.Vec_IntGrow.exit10_crit_edge.i14

.Vec_IntGrow.exit10_crit_edge.i14:                ; preds = %38
  %.phi.trans.insert.i15 = getelementptr inbounds nuw i8, ptr %0, i64 232
  %.pre.i16 = load ptr, ptr %.phi.trans.insert.i15, align 8
  br label %Vec_IntPush.exit20

44:                                               ; preds = %38
  %45 = icmp slt i32 %41, 16
  br i1 %45, label %46, label %54

46:                                               ; preds = %44
  %47 = getelementptr inbounds nuw i8, ptr %0, i64 232
  %48 = load ptr, ptr %47, align 8
  %.not9.i.i18 = icmp eq ptr %48, null
  br i1 %.not9.i.i18, label %51, label %49

49:                                               ; preds = %46
  %50 = tail call dereferenceable_or_null(64) ptr @realloc(ptr noundef nonnull %48, i64 noundef 64) #29
  br label %Vec_IntGrow.exit.i19

51:                                               ; preds = %46
  %52 = tail call noalias dereferenceable_or_null(64) ptr @malloc(i64 noundef 64) #30
  br label %Vec_IntGrow.exit.i19

Vec_IntGrow.exit.i19:                             ; preds = %51, %49
  %53 = phi ptr [ %50, %49 ], [ %52, %51 ]
  store ptr %53, ptr %47, align 8
  store i32 16, ptr %39, align 8
  br label %Vec_IntPush.exit20

54:                                               ; preds = %44
  %55 = shl nuw nsw i32 %41, 1
  %56 = getelementptr inbounds nuw i8, ptr %0, i64 232
  %57 = load ptr, ptr %56, align 8
  %.not9.i9.i17 = icmp eq ptr %57, null
  %58 = zext nneg i32 %55 to i64
  %59 = shl nuw nsw i64 %58, 2
  br i1 %.not9.i9.i17, label %62, label %60

60:                                               ; preds = %54
  %61 = tail call ptr @realloc(ptr noundef nonnull %57, i64 noundef %59) #29
  br label %64

62:                                               ; preds = %54
  %63 = tail call noalias ptr @malloc(i64 noundef %59) #30
  br label %64

64:                                               ; preds = %62, %60
  %65 = phi ptr [ %61, %60 ], [ %63, %62 ]
  store ptr %65, ptr %56, align 8
  store i32 %55, ptr %39, align 8
  br label %Vec_IntPush.exit20

Vec_IntPush.exit20:                               ; preds = %.Vec_IntGrow.exit10_crit_edge.i14, %Vec_IntGrow.exit.i19, %64
  %66 = phi ptr [ %.pre.i16, %.Vec_IntGrow.exit10_crit_edge.i14 ], [ %65, %64 ], [ %53, %Vec_IntGrow.exit.i19 ]
  %67 = load i32, ptr %40, align 4
  %68 = add nsw i32 %67, 1
  store i32 %68, ptr %40, align 4
  %69 = sext i32 %67 to i64
  %70 = getelementptr inbounds i32, ptr %66, i64 %69
  store i32 %.val12, ptr %70, align 4
  %71 = getelementptr i8, ptr %3, i64 4
  %.val = load i32, ptr %71, align 4
  %72 = add nsw i32 %.val, 2
  %73 = load i32, ptr %6, align 4
  %74 = load i32, ptr %5, align 8
  %75 = icmp eq i32 %73, %74
  br i1 %75, label %76, label %.Vec_IntGrow.exit10_crit_edge.i21

.Vec_IntGrow.exit10_crit_edge.i21:                ; preds = %Vec_IntPush.exit20
  %.phi.trans.insert.i22 = getelementptr inbounds nuw i8, ptr %0, i64 216
  %.pre.i23 = load ptr, ptr %.phi.trans.insert.i22, align 8
  br label %Vec_IntPush.exit27

76:                                               ; preds = %Vec_IntPush.exit20
  %77 = icmp slt i32 %73, 16
  br i1 %77, label %78, label %86

78:                                               ; preds = %76
  %79 = getelementptr inbounds nuw i8, ptr %0, i64 216
  %80 = load ptr, ptr %79, align 8
  %.not9.i.i25 = icmp eq ptr %80, null
  br i1 %.not9.i.i25, label %83, label %81

81:                                               ; preds = %78
  %82 = tail call dereferenceable_or_null(64) ptr @realloc(ptr noundef nonnull %80, i64 noundef 64) #29
  br label %Vec_IntGrow.exit.i26

83:                                               ; preds = %78
  %84 = tail call noalias dereferenceable_or_null(64) ptr @malloc(i64 noundef 64) #30
  br label %Vec_IntGrow.exit.i26

Vec_IntGrow.exit.i26:                             ; preds = %83, %81
  %85 = phi ptr [ %82, %81 ], [ %84, %83 ]
  store ptr %85, ptr %79, align 8
  store i32 16, ptr %5, align 8
  br label %Vec_IntPush.exit27

86:                                               ; preds = %76
  %87 = shl nuw nsw i32 %73, 1
  %88 = getelementptr inbounds nuw i8, ptr %0, i64 216
  %89 = load ptr, ptr %88, align 8
  %.not9.i9.i24 = icmp eq ptr %89, null
  %90 = zext nneg i32 %87 to i64
  %91 = shl nuw nsw i64 %90, 2
  br i1 %.not9.i9.i24, label %94, label %92

92:                                               ; preds = %86
  %93 = tail call ptr @realloc(ptr noundef nonnull %89, i64 noundef %91) #29
  br label %96

94:                                               ; preds = %86
  %95 = tail call noalias ptr @malloc(i64 noundef %91) #30
  br label %96

96:                                               ; preds = %94, %92
  %97 = phi ptr [ %93, %92 ], [ %95, %94 ]
  store ptr %97, ptr %88, align 8
  store i32 %87, ptr %5, align 8
  br label %Vec_IntPush.exit27

Vec_IntPush.exit27:                               ; preds = %.Vec_IntGrow.exit10_crit_edge.i21, %Vec_IntGrow.exit.i26, %96
  %98 = phi ptr [ %.pre.i23, %.Vec_IntGrow.exit10_crit_edge.i21 ], [ %97, %96 ], [ %85, %Vec_IntGrow.exit.i26 ]
  %99 = load i32, ptr %6, align 4
  %100 = add nsw i32 %99, 1
  store i32 %100, ptr %6, align 4
  %101 = sext i32 %99 to i64
  %102 = getelementptr inbounds i32, ptr %98, i64 %101
  store i32 %72, ptr %102, align 4
  %103 = load i32, ptr %6, align 4
  %104 = load i32, ptr %5, align 8
  %105 = icmp eq i32 %103, %104
  br i1 %105, label %106, label %.Vec_IntGrow.exit10_crit_edge.i28

.Vec_IntGrow.exit10_crit_edge.i28:                ; preds = %Vec_IntPush.exit27
  %.phi.trans.insert.i29 = getelementptr inbounds nuw i8, ptr %0, i64 216
  %.pre.i30 = load ptr, ptr %.phi.trans.insert.i29, align 8
  br label %Vec_IntPush.exit34

106:                                              ; preds = %Vec_IntPush.exit27
  %107 = icmp slt i32 %103, 16
  br i1 %107, label %108, label %116

108:                                              ; preds = %106
  %109 = getelementptr inbounds nuw i8, ptr %0, i64 216
  %110 = load ptr, ptr %109, align 8
  %.not9.i.i32 = icmp eq ptr %110, null
  br i1 %.not9.i.i32, label %113, label %111

111:                                              ; preds = %108
  %112 = tail call dereferenceable_or_null(64) ptr @realloc(ptr noundef nonnull %110, i64 noundef 64) #29
  br label %Vec_IntGrow.exit.i33

113:                                              ; preds = %108
  %114 = tail call noalias dereferenceable_or_null(64) ptr @malloc(i64 noundef 64) #30
  br label %Vec_IntGrow.exit.i33

Vec_IntGrow.exit.i33:                             ; preds = %113, %111
  %115 = phi ptr [ %112, %111 ], [ %114, %113 ]
  store ptr %115, ptr %109, align 8
  store i32 16, ptr %5, align 8
  br label %Vec_IntPush.exit34

116:                                              ; preds = %106
  %117 = shl nuw nsw i32 %103, 1
  %118 = getelementptr inbounds nuw i8, ptr %0, i64 216
  %119 = load ptr, ptr %118, align 8
  %.not9.i9.i31 = icmp eq ptr %119, null
  %120 = zext nneg i32 %117 to i64
  %121 = shl nuw nsw i64 %120, 2
  br i1 %.not9.i9.i31, label %124, label %122

122:                                              ; preds = %116
  %123 = tail call ptr @realloc(ptr noundef nonnull %119, i64 noundef %121) #29
  br label %126

124:                                              ; preds = %116
  %125 = tail call noalias ptr @malloc(i64 noundef %121) #30
  br label %126

126:                                              ; preds = %124, %122
  %127 = phi ptr [ %123, %122 ], [ %125, %124 ]
  store ptr %127, ptr %118, align 8
  store i32 %117, ptr %5, align 8
  br label %Vec_IntPush.exit34

Vec_IntPush.exit34:                               ; preds = %.Vec_IntGrow.exit10_crit_edge.i28, %Vec_IntGrow.exit.i33, %126
  %128 = phi ptr [ %.pre.i30, %.Vec_IntGrow.exit10_crit_edge.i28 ], [ %127, %126 ], [ %115, %Vec_IntGrow.exit.i33 ]
  %129 = load i32, ptr %6, align 4
  %130 = add nsw i32 %129, 1
  store i32 %130, ptr %6, align 4
  %131 = sext i32 %129 to i64
  %132 = getelementptr inbounds i32, ptr %128, i64 %131
  store i32 %1, ptr %132, align 4
  %133 = load i32, ptr %6, align 4
  %134 = load i32, ptr %5, align 8
  %135 = icmp eq i32 %133, %134
  br i1 %135, label %136, label %.Vec_IntGrow.exit10_crit_edge.i35

.Vec_IntGrow.exit10_crit_edge.i35:                ; preds = %Vec_IntPush.exit34
  %.phi.trans.insert.i36 = getelementptr inbounds nuw i8, ptr %0, i64 216
  %.pre.i37 = load ptr, ptr %.phi.trans.insert.i36, align 8
  br label %Vec_IntPush.exit41

136:                                              ; preds = %Vec_IntPush.exit34
  %137 = icmp slt i32 %133, 16
  br i1 %137, label %138, label %146

138:                                              ; preds = %136
  %139 = getelementptr inbounds nuw i8, ptr %0, i64 216
  %140 = load ptr, ptr %139, align 8
  %.not9.i.i39 = icmp eq ptr %140, null
  br i1 %.not9.i.i39, label %143, label %141

141:                                              ; preds = %138
  %142 = tail call dereferenceable_or_null(64) ptr @realloc(ptr noundef nonnull %140, i64 noundef 64) #29
  br label %Vec_IntGrow.exit.i40

143:                                              ; preds = %138
  %144 = tail call noalias dereferenceable_or_null(64) ptr @malloc(i64 noundef 64) #30
  br label %Vec_IntGrow.exit.i40

Vec_IntGrow.exit.i40:                             ; preds = %143, %141
  %145 = phi ptr [ %142, %141 ], [ %144, %143 ]
  store ptr %145, ptr %139, align 8
  store i32 16, ptr %5, align 8
  br label %Vec_IntPush.exit41

146:                                              ; preds = %136
  %147 = shl nuw nsw i32 %133, 1
  %148 = getelementptr inbounds nuw i8, ptr %0, i64 216
  %149 = load ptr, ptr %148, align 8
  %.not9.i9.i38 = icmp eq ptr %149, null
  %150 = zext nneg i32 %147 to i64
  %151 = shl nuw nsw i64 %150, 2
  br i1 %.not9.i9.i38, label %154, label %152

152:                                              ; preds = %146
  %153 = tail call ptr @realloc(ptr noundef nonnull %149, i64 noundef %151) #29
  br label %156

154:                                              ; preds = %146
  %155 = tail call noalias ptr @malloc(i64 noundef %151) #30
  br label %156

156:                                              ; preds = %154, %152
  %157 = phi ptr [ %153, %152 ], [ %155, %154 ]
  store ptr %157, ptr %148, align 8
  store i32 %147, ptr %5, align 8
  br label %Vec_IntPush.exit41

Vec_IntPush.exit41:                               ; preds = %.Vec_IntGrow.exit10_crit_edge.i35, %Vec_IntGrow.exit.i40, %156
  %158 = phi ptr [ %.pre.i37, %.Vec_IntGrow.exit10_crit_edge.i35 ], [ %157, %156 ], [ %145, %Vec_IntGrow.exit.i40 ]
  %159 = load i32, ptr %6, align 4
  %160 = add nsw i32 %159, 1
  store i32 %160, ptr %6, align 4
  %161 = sext i32 %159 to i64
  %162 = getelementptr inbounds i32, ptr %158, i64 %161
  store i32 %2, ptr %162, align 4
  tail call fastcc void @Vec_IntAppend(ptr noundef nonnull %5, ptr noundef nonnull %3)
  ret void
}